; ModuleID = '9/722.c'
source_filename = "9/722.c"
target datalayout = "e-m:e-p270:32:32-p271:32:32-p272:64:64-i64:64-f80:128-n8:16:32:64-S128"
target triple = "x86_64-pc-linux-gnu"

%struct.p = type { [10 x i8], i32 }

@.str = private unnamed_addr constant [3 x i8] c"%d\00", align 1
@.str.1 = private unnamed_addr constant [6 x i8] c"%s %d\00", align 1
@.str.2 = private unnamed_addr constant [4 x i8] c"%s\0A\00", align 1

; Function Attrs: noinline nounwind uwtable
define dso_local void @main() #0 {
  %1 = alloca i32, align 4
  %2 = alloca i32, align 4
  %3 = alloca i32, align 4
  %4 = alloca i32, align 4
  %5 = alloca i32, align 4
  %6 = alloca i8*, align 8
  %7 = alloca i64, align 8
  %8 = alloca i64, align 8
  %9 = alloca i64, align 8
  %10 = alloca %struct.p, align 4
  store i32 0, i32* %3, align 4
  store i32 0, i32* %4, align 4
  %11 = call i32 (i8*, ...) @__isoc99_scanf(i8* getelementptr inbounds ([3 x i8], [3 x i8]* @.str, i64 0, i64 0), i32* %1)
  %12 = load i32, i32* %1, align 4
  %13 = zext i32 %12 to i64
  %14 = call i8* @llvm.stacksave()
  store i8* %14, i8** %6, align 8
  %15 = alloca %struct.p, i64 %13, align 16
  store i64 %13, i64* %7, align 8
  %16 = load i32, i32* %1, align 4
  %17 = zext i32 %16 to i64
  %18 = alloca %struct.p, i64 %17, align 16
  store i64 %17, i64* %8, align 8
  %19 = load i32, i32* %1, align 4
  %20 = zext i32 %19 to i64
  %21 = alloca %struct.p, i64 %20, align 16
  store i64 %20, i64* %9, align 8
  store i32 0, i32* %2, align 4
  br label %22

22:                                               ; preds = %65, %0
  %23 = load i32, i32* %2, align 4
  %24 = load i32, i32* %1, align 4
  %25 = icmp slt i32 %23, %24
  br i1 %25, label %26, label %68

26:                                               ; preds = %22
  %27 = load i32, i32* %2, align 4
  %28 = sext i32 %27 to i64
  %29 = getelementptr inbounds %struct.p, %struct.p* %15, i64 %28
  %30 = getelementptr inbounds %struct.p, %struct.p* %29, i32 0, i32 0
  %31 = load i32, i32* %2, align 4
  %32 = sext i32 %31 to i64
  %33 = getelementptr inbounds %struct.p, %struct.p* %15, i64 %32
  %34 = getelementptr inbounds %struct.p, %struct.p* %33, i32 0, i32 1
  %35 = call i32 (i8*, ...) @__isoc99_scanf(i8* getelementptr inbounds ([6 x i8], [6 x i8]* @.str.1, i64 0, i64 0), [10 x i8]* %30, i32* %34)
  %36 = load i32, i32* %2, align 4
  %37 = sext i32 %36 to i64
  %38 = getelementptr inbounds %struct.p, %struct.p* %15, i64 %37
  %39 = getelementptr inbounds %struct.p, %struct.p* %38, i32 0, i32 1
  %40 = load i32, i32* %39, align 4
  %41 = icmp sge i32 %40, 60
  br i1 %41, label %42, label %53

42:                                               ; preds = %26
  %43 = load i32, i32* %3, align 4
  %44 = sext i32 %43 to i64
  %45 = getelementptr inbounds %struct.p, %struct.p* %18, i64 %44
  %46 = load i32, i32* %2, align 4
  %47 = sext i32 %46 to i64
  %48 = getelementptr inbounds %struct.p, %struct.p* %15, i64 %47
  %49 = bitcast %struct.p* %45 to i8*
  %50 = bitcast %struct.p* %48 to i8*
  call void @llvm.memcpy.p0i8.p0i8.i64(i8* align 16 %49, i8* align 16 %50, i64 16, i1 false)
  %51 = load i32, i32* %3, align 4
  %52 = add nsw i32 %51, 1
  store i32 %52, i32* %3, align 4
  br label %64

53:                                               ; preds = %26
  %54 = load i32, i32* %4, align 4
  %55 = sext i32 %54 to i64
  %56 = getelementptr inbounds %struct.p, %struct.p* %21, i64 %55
  %57 = load i32, i32* %2, align 4
  %58 = sext i32 %57 to i64
  %59 = getelementptr inbounds %struct.p, %struct.p* %15, i64 %58
  %60 = bitcast %struct.p* %56 to i8*
  %61 = bitcast %struct.p* %59 to i8*
  call void @llvm.memcpy.p0i8.p0i8.i64(i8* align 16 %60, i8* align 16 %61, i64 16, i1 false)
  %62 = load i32, i32* %4, align 4
  %63 = add nsw i32 %62, 1
  store i32 %63, i32* %4, align 4
  br label %64

64:                                               ; preds = %53, %42
  br label %65

65:                                               ; preds = %64
  %66 = load i32, i32* %2, align 4
  %67 = add nsw i32 %66, 1
  store i32 %67, i32* %2, align 4
  br label %22

68:                                               ; preds = %22
  store i32 0, i32* %2, align 4
  br label %69

69:                                               ; preds = %121, %68
  %70 = load i32, i32* %2, align 4
  %71 = load i32, i32* %3, align 4
  %72 = sub nsw i32 %71, 1
  %73 = icmp slt i32 %70, %72
  br i1 %73, label %74, label %124

74:                                               ; preds = %69
  store i32 0, i32* %5, align 4
  br label %75

75:                                               ; preds = %117, %74
  %76 = load i32, i32* %5, align 4
  %77 = load i32, i32* %3, align 4
  %78 = sub nsw i32 %77, 1
  %79 = load i32, i32* %2, align 4
  %80 = sub nsw i32 %78, %79
  %81 = icmp slt i32 %76, %80
  br i1 %81, label %82, label %120

82:                                               ; preds = %75
  %83 = load i32, i32* %5, align 4
  %84 = sext i32 %83 to i64
  %85 = getelementptr inbounds %struct.p, %struct.p* %18, i64 %84
  %86 = getelementptr inbounds %struct.p, %struct.p* %85, i32 0, i32 1
  %87 = load i32, i32* %86, align 4
  %88 = load i32, i32* %5, align 4
  %89 = add nsw i32 %88, 1
  %90 = sext i32 %89 to i64
  %91 = getelementptr inbounds %struct.p, %struct.p* %18, i64 %90
  %92 = getelementptr inbounds %struct.p, %struct.p* %91, i32 0, i32 1
  %93 = load i32, i32* %92, align 4
  %94 = icmp slt i32 %87, %93
  br i1 %94, label %95, label %116

95:                                               ; preds = %82
  %96 = load i32, i32* %5, align 4
  %97 = sext i32 %96 to i64
  %98 = getelementptr inbounds %struct.p, %struct.p* %18, i64 %97
  %99 = bitcast %struct.p* %10 to i8*
  %100 = bitcast %struct.p* %98 to i8*
  call void @llvm.memcpy.p0i8.p0i8.i64(i8* align 4 %99, i8* align 16 %100, i64 16, i1 false)
  %101 = load i32, i32* %5, align 4
  %102 = sext i32 %101 to i64
  %103 = getelementptr inbounds %struct.p, %struct.p* %18, i64 %102
  %104 = load i32, i32* %5, align 4
  %105 = add nsw i32 %104, 1
  %106 = sext i32 %105 to i64
  %107 = getelementptr inbounds %struct.p, %struct.p* %18, i64 %106
  %108 = bitcast %struct.p* %103 to i8*
  %109 = bitcast %struct.p* %107 to i8*
  call void @llvm.memcpy.p0i8.p0i8.i64(i8* align 16 %108, i8* align 16 %109, i64 16, i1 false)
  %110 = load i32, i32* %5, align 4
  %111 = add nsw i32 %110, 1
  %112 = sext i32 %111 to i64
  %113 = getelementptr inbounds %struct.p, %struct.p* %18, i64 %112
  %114 = bitcast %struct.p* %113 to i8*
  %115 = bitcast %struct.p* %10 to i8*
  call void @llvm.memcpy.p0i8.p0i8.i64(i8* align 16 %114, i8* align 4 %115, i64 16, i1 false)
  br label %116

116:                                              ; preds = %95, %82
  br label %117

117:                                              ; preds = %116
  %118 = load i32, i32* %5, align 4
  %119 = add nsw i32 %118, 1
  store i32 %119, i32* %5, align 4
  br label %75

120:                                              ; preds = %75
  br label %121

121:                                              ; preds = %120
  %122 = load i32, i32* %2, align 4
  %123 = add nsw i32 %122, 1
  store i32 %123, i32* %2, align 4
  br label %69

124:                                              ; preds = %69
  store i32 0, i32* %2, align 4
  br label %125

125:                                              ; preds = %136, %124
  %126 = load i32, i32* %2, align 4
  %127 = load i32, i32* %3, align 4
  %128 = icmp slt i32 %126, %127
  br i1 %128, label %129, label %139

129:                                              ; preds = %125
  %130 = load i32, i32* %2, align 4
  %131 = sext i32 %130 to i64
  %132 = getelementptr inbounds %struct.p, %struct.p* %18, i64 %131
  %133 = getelementptr inbounds %struct.p, %struct.p* %132, i32 0, i32 0
  %134 = getelementptr inbounds [10 x i8], [10 x i8]* %133, i64 0, i64 0
  %135 = call i32 (i8*, ...) @printf(i8* getelementptr inbounds ([4 x i8], [4 x i8]* @.str.2, i64 0, i64 0), i8* %134)
  br label %136

136:                                              ; preds = %129
  %137 = load i32, i32* %2, align 4
  %138 = add nsw i32 %137, 1
  store i32 %138, i32* %2, align 4
  br label %125

139:                                              ; preds = %125
  store i32 0, i32* %2, align 4
  br label %140

140:                                              ; preds = %151, %139
  %141 = load i32, i32* %2, align 4
  %142 = load i32, i32* %4, align 4
  %143 = icmp slt i32 %141, %142
  br i1 %143, label %144, label %154

144:                                              ; preds = %140
  %145 = load i32, i32* %2, align 4
  %146 = sext i32 %145 to i64
  %147 = getelementptr inbounds %struct.p, %struct.p* %21, i64 %146
  %148 = getelementptr inbounds %struct.p, %struct.p* %147, i32 0, i32 0
  %149 = getelementptr inbounds [10 x i8], [10 x i8]* %148, i64 0, i64 0
  %150 = call i32 (i8*, ...) @printf(i8* getelementptr inbounds ([4 x i8], [4 x i8]* @.str.2, i64 0, i64 0), i8* %149)
  br label %151

151:                                              ; preds = %144
  %152 = load i32, i32* %2, align 4
  %153 = add nsw i32 %152, 1
  store i32 %153, i32* %2, align 4
  br label %140

154:                                              ; preds = %140
  %155 = load i8*, i8** %6, align 8
  call void @llvm.stackrestore(i8* %155)
  ret void
}

declare dso_local i32 @__isoc99_scanf(i8*, ...) #1

; Function Attrs: nounwind
declare i8* @llvm.stacksave() #2

; Function Attrs: argmemonly nounwind willreturn
declare void @llvm.memcpy.p0i8.p0i8.i64(i8* noalias nocapture writeonly, i8* noalias nocapture readonly, i64, i1 immarg) #3

declare dso_local i32 @printf(i8*, ...) #1

; Function Attrs: nounwind
declare void @llvm.stackrestore(i8*) #2


!llvm.module.flags = !{!0}
!llvm.ident = !{!1}

!0 = !{i32 1, !"wchar_size", i32 4}
!1 = !{!"clang version 10.0.0-4ubuntu1 "}
